(lp0
F31.622776601683793
aI10
a.(lp0
F7.2
aF5.4
a.(lp0
cnumpy.core.multiarray
scalar
p1
(cnumpy
dtype
p2
(S'f8'
p3
I0
I1
tp4
Rp5
(I3
S'<'
p6
NNNI-1
I-1
I0
tp7
bS'\xebQ\xb8\x1e\x85\xeb\xe1?'
p8
tp9
Rp10
ag1
(g5
S'\xba\x1e\x85\xebQ\xb8\xce?'
p11
tp12
Rp13
a.