(lp0
F3.1622776601683795
aI1
aF0.31622776601683794
aF0.1
aF0.03162277660168379
aF0.01
aF0.0031622776601683794
aF0.001
aF0.00031622776601683794
aF0.0001
a.(lp0
F3.17
aF2.6
aF2.18
aF1.6
aF1.19
aF0.88
aF0.32
aF0.48
aF0.39
aF0.43
a.(lp0
cnumpy.core.multiarray
scalar
p1
(cnumpy
dtype
p2
(S'f8'
p3
I0
I1
tp4
Rp5
(I3
S'<'
p6
NNNI-1
I-1
I0
tp7
bS'W[\xb1\xbf\xec\x9e\xc4?'
p8
tp9
Rp10
ag1
(g5
S'533333\xd3?'
p11
tp12
Rp13
ag1
(g5
S'6\xab>W[\xb1\xcf?'
p14
tp15
Rp16
ag1
(g5
S'\xc4\xf5(\\\x8f\xc2\xd5?'
p17
tp18
Rp19
ag1
(g5
S'\x03\x9a\x08\x1b\x9e^\xd5?'
p20
tp21
Rp22
ag1
(g5
S'=\x9bU\x9f\xab\xad\xd8?'
p23
tp24
Rp25
ag1
(g5
S'\x85\xa7W\xca2\xc4\xd1?'
p26
tp27
Rp28
ag1
(g5
S'V\x9f\xab\xad\xd8_\xd6?'
p29
tp30
Rp31
ag1
(g5
S'c\x7f\xd9=yX\xd4?'
p32
tp33
Rp34
ag1
(g5
S'\xb1\x03\xe7\x8c(\xed\xd9?'
p35
tp36
Rp37
a.(lp0
F0.16999999999999993
aF0.6000000000000001
aF0.18000000000000016
aF0.6000000000000001
aF0.18999999999999995
aF0.88
aF0.32
aF0.48
aF0.39
aF0.43
a.(lp0
F0.8300000000000001
aF0.3999999999999999
aF0.8199999999999998
aF0.3999999999999999
aF0.81
aF1.12
aF0.6799999999999999
aF0.52
aF0.61
aF0.5700000000000001
a.