(lp0
F3.1622776601683795
a.(lp0
F4.0
a.(lp0
cnumpy.core.multiarray
scalar
p1
(cnumpy
dtype
p2
(S'f8'
p3
I0
I1
tp4
Rp5
(I3
S'<'
p6
NNNI-1
I-1
I0
tp7
bS'\x00\x00\x00\x00\x00\x00\x00\x00'
p8
tp9
Rp10
a.(lp0
F0.0
a.(lp0
F0.0
a.(lp0
F0.7426068378056052
aF0.9264565836172332
aF0.862279827180046
aF0.8874143488364689
aF0.7998972744721982
aF0.8163687697200139
aF0.8283437202249597
aF0.8916509578044306
aF0.8314008056061942
aF0.7515441096654432
aF0.7863385937797464
aF0.6644760964985813
aF0.8323215808673903
aF0.8837759480462443
aF0.846519160695913
aF0.8616247293388085
aF0.836982000332771
aF0.7600067160533879
aF0.7748389895706385
aF0.6169523525847768
aF0.6547489928805491
aF0.9378916896052303
aF0.9515495370977528
aF0.8627762426047355
aF0.8618544252552678
aF0.8899886256460603
aF0.853552000863891
aF0.7436755473689479
aF0.7356771556032878
aF0.8495070436424809
aF0.9324839820604549
aF0.7590469304785624
aF0.7652252081161554
aF0.6553619507957176
aF0.940122454507401
aF0.9573117368881374
aF0.8365046358925031
aF0.6360900090161739
aF0.8073874744239262
aF0.9084268175982759
aF0.9258571438284884
aF0.8322743283364574
aF0.8855600333113599
aF0.7430021338479138
aF0.9240916194144115
aF0.9187857043334219
aF0.7414446635599058
aF0.889799630238971
aF0.7915500783085649
aF0.8385867706010491
aF0.97330073859275
aF0.8928138656595941
aF0.8964276959046926
aF0.9600166875643947
aF0.7981637504949677
aF0.926642703030852
aF0.7612839453357865
aF0.9016814206861662
aF0.7976796385870097
aF0.845130639928361
aF0.873746310969591
aF0.9248938088473145
aF0.8501497509575207
aF0.9377976485093261
aF0.743578907887879
aF0.8703489840878511
aF0.9820270802071822
aF0.9182118588760334
aF0.8755534427956712
aF0.7863660912514912
aF0.817582309248058
aF0.9134772708453225
aF0.8335329819898958
aF0.7862561202529409
aF0.9135552333204618
aF0.9233268921779306
aF0.8959109565660112
aF0.7818111734044715
aF0.744092101155691
aF0.8473988803980471
aF0.9045434335479537
aF0.8271604845635213
aF0.9087431142723922
aF0.9319271538636907
aF0.8679143529278487
aF0.6770814950581112
aF0.8012469496346332
aF0.8385405711116705
aF0.8629239901114852
aF0.8484646738509346
aF0.7966169932933516
aF0.8667626919938138
aF0.8693623875584012
aF0.9877521646190174
aF0.93592764078262
aF0.8588588009743773
aF0.9034872110232861
aF0.8652610161537674
aF0.9481083237607558
aF0.7954627463286077
aF0.9380478648309768
aF0.8468866993162338
aF0.6828682839252479
aF0.740314330997265
aF0.8230088663252894
aF0.7639749103994995
aF0.9039647784799977
aF0.6667316060224997
aF0.8879981829211371
aF0.8780842007616676
aF0.9647311321413949
aF0.7879399743281579
aF0.9065216062429654
aF0.9755439129049953
aF0.9762026849833084
aF0.883521978439928
aF0.7741611908089636
aF0.8653266395081768
aF0.9166741066916929
aF0.9312119059884381
aF0.7170255571371389
aF0.9351914550834753
aF0.9451920612898719
aF0.7420939383759344
aF0.8058696122008957
aF0.731925311676472
aF0.7149495617884538
aF0.858136960759075
aF0.9040386306155522
aF0.9170998015697546
aF0.7892784305781652
aF0.9307482261203108
aF0.9344148858069578
aF0.7884850159420845
aF0.8572528202453004
aF0.9301422969073494
aF0.7469826669177129
aF0.7131887452268072
aF0.9436017593616552
aF0.9251287813661835
aF0.9002360253687162
aF0.8902670862805055
aF0.785853726942729
aF0.9093580459481958
aF0.7690316462038475
aF0.8595643090629851
aF0.9126015744525927
aF0.9668213468957568
aF0.7217069563710496
aF0.9163514197886831
aF0.8281916923282373
aF0.7364363415315744
aF0.9172101955673109
aF1.0
aF0.9272188298976601
aF0.8827192427835434
aF0.778903065059105
aF0.9337906237314705
aF0.9374454844139191
aF0.7351244246955109
aF0.8629627517227947
aF0.7127481357841199
aF0.9626642893152333
aF0.8700716835870271
aF0.789323998122903
aF0.847398548660299
aF0.8878865929757763
aF0.9776045302725318
aF0.7701387373041716
aF0.9347550994972942
aF0.8115131943942857
aF0.7538636530248417
aF0.6352506510575073
aF0.9137058918701896
aF0.9313181454699919
aF0.8097321094819813
aF0.7777795663024926
aF0.9231344322240147
aF0.9125584064585285
aF0.8840265982854145
aF0.8263142511914602
aF0.895044868333862
aF0.8924150101429279
aF0.9284723594999484
aF0.8537456928929211
aF0.8610407943463557
aF0.7575173874009191
aF0.773515700977986
aF0.8928098178758104
aF0.787360854679457
aF0.9844853041316953
aF0.8881079799863717
aF0.6503961223923276
aF0.7718381173114063
aF0.8774542327948754
aF0.6818412376486034
aF0.9194377540475622
aF0.9194157298520714
aF0.6744759706250273
aF0.7834871577050406
aF0.8936080234867408
aF0.7490980596932051
aF0.812507675306052
aF0.7877683484133763
aF0.6444752174743152
aF0.8976631822427625
aF0.8900572405249627
aF0.8228673321602618
aF0.9238493155869477
aF0.9472238716771941
aF0.875265557933231
aF0.7786150014807292
aF0.7292238014335255
aF0.7647453935620471
aF0.7682508058687797
aF0.8364067549608586
aF0.8598808419442343
aF0.853757675924464
aF0.7969449865245084
aF0.7350878603343093
aF0.9696898678452542
aF0.9589117328466584
aF0.661666938952356
aF0.7513175426852413
aF0.8016072341127645
aF0.6435911128513299
aF0.6621753116345045
aF0.7992500366689475
aF0.8479319571907336
aF0.8735026506993153
aF0.7889825976494962
aF0.7041154284762208
aF0.8308892360436765
aF0.7138931208896994
aF0.738345540366547
aF0.7141667500105542
aF0.9423391237384445
aF0.8935268095603663
aF0.7756905235488355
aF0.8011355565890598
aF0.9070809391713597
aF0.7823040715714178
aF0.820184342248583
aF0.9149634141704448
aF0.8280288101746479
aF0.7970765052547474
aF0.8428524524601403
aF0.6309863844266609
aF0.8276336705378408
aF0.7541192178345738
aF0.7770426418820351
aF0.8953380725911294
aF0.9493215742169129
aF0.7934147798374673
aF0.8374355606684866
aF0.9855496538127198
aF0.855828532642166
aF0.7945288087290646
aF0.8506361112333094
aF0.9085364447500841
aF0.7714372694408841
aF0.9174329988051904
aF0.7227094962677187
aF0.8452747319707168
aF0.879180341408116
aF0.8942895952205063
aF0.8186310576535837
aF0.8834800464346962
aF0.7471952745022931
aF0.8249160543356957
aF0.6961147400804338
aF0.8224770735668924
aF0.9004818465912102
aF0.7943106531682119
aF0.8108733837685229
aF0.7926227838816592
aF0.7386397438164847
aF0.9219284548248046
aF0.8380492956472939
aF0.9038524099153955
aF0.6778892048860151
aF0.7822274391571403
aF0.6687893932738905
aF0.8839885969534493
aF0.8816503821647836
aF0.956341439237134
aF0.8675507476121554
aF0.9187631322921408
aF0.713503743005484
aF0.9628653856875129
aF0.8626992160906041
aF0.8795844725842689
aF0.8666328500635135
aF0.9337293326004176
aF0.7126358772948963
aF0.6681199682592325
aF0.7779129794761094
aF0.7293887008658744
aF0.5203320443204364
aF0.8788506881958275
aF0.8293080259494503
aF0.7505646821641845
aF0.5602207044355463
aF0.7108024713575439
aF0.685052544838444
aF0.9881480658838623
aF0.8756553687199506
aF0.8626768793444451
aF0.8454620407389665
aF0.8450074088747572
aF0.7151891220823193
aF0.8963394718774571
aF0.7031974799404254
aF0.8359184510134752
aF0.9108453257053798
aF0.863515600031537
aF0.9134993441094291
aF0.8479853829761055
aF0.888857005292519
aF0.8460929569630293
aF0.85050214616606
aF0.661094266961156
aF0.7822477986197222
aF0.8752046476744986
aF0.9357624748523069
aF0.8781686383560264
aF0.8990163548959296
aF0.9270378030172653
aF0.858023397903859
aF0.8624541219935598
aF0.8627139346523892
aF0.868596891808407
aF0.8567435053196232
aF0.7015020729985691
aF0.8271457259743328
aF0.8692756761931556
aF0.8189603806929917
aF0.9294794984072374
aF0.8993254004942529
aF0.608935276716369
aF1.0
aF0.6768347640273646
aF0.8876289169505052
aF0.9077824515150614
aF1.0
aF0.9768698752323368
aF0.7313404105206209
aF0.8647477276746626
aF0.7377765178203509
aF0.7988486621595222
aF0.8265469495795056
aF0.8606015475380381
aF0.7070320180343201
aF0.8616370358496802
aF0.8414487856561867
aF0.9512592256981944
aF0.9453881965915719
aF0.8878299888410922
aF0.7031506579501444
aF0.9152801562443329
aF0.8214977957098694
aF0.8493576070171635
aF0.9330981727009073
aF0.7726792024839495
aF0.8579150833522274
aF0.8901197894642223
aF0.8997245005223795
aF0.9413002683716241
aF0.780486183253807
aF0.8520364748674789
aF0.8532823680815466
aF0.9028224842908176
aF0.8772562278944716
aF0.9087727448456023
aF0.7258344690731446
aF0.8052040714012542
aF0.9081724576326665
aF0.731302761779882
aF0.6007354100141122
aF0.7865374199291241
aF0.7930981413778269
aF0.9294783812038111
aF0.9500636399867233
aF0.8650330597316342
aF0.8574523655209
aF0.8638543119203369
aF0.8176707439365811
aF0.9004513455362131
aF0.9502369167678854
aF0.8438737548200488
aF0.6731247700694605
aF0.9556172393097988
aF0.8851445874336314
aF0.8918708632730368
aF0.9312600368219313
aF0.7547798715843771
aF0.8608666814201513
aF0.5802847063580046
aF0.7598439234886082
aF0.8868522830520392
aF0.6732843649480181
aF0.8616573615146311
aF0.0
aF0.9032829189351894
aF0.6616640476749032
aF0.8398485481903499
aF0.6212840787636952
aF0.9343681031998177
aF0.8439616203586524
aF0.8846257048366453
aF0.9441444705640727
aF0.8849680769647973
aF0.9904984114035648
aF0.8639444022708946
aF0.8541869594147002
aF0.8853557364349945
aF0.702449516583311
aF0.9015338969228698
aF0.938343573038303
aF0.7746431894617625
aF0.9494680658905561
aF0.8438385301918958
aF0.8062144214950521
aF0.9292788214852141
aF0.916660978803379
aF0.8149438923173057
aF0.8373642542947202
aF0.9071868595577395
aF0.6345192881447085
aF0.8917502711582973
aF0.9105644299638866
aF0.861030559560123
aF0.9690169325686138
aF0.731366856623775
aF0.9371627753777946
aF0.9217402408132944
aF0.8026875084589267
aF0.9289027885339749
aF0.911991110209891
aF0.877069850815731
aF0.8936560756146966
aF0.9069660751557257
aF0.9178190092753616
aF0.8927883400728613
aF0.8216319293755034
aF0.75914311557164
aF0.6617259358338193
aF0.6817083587938683
aF0.9167174705208598
aF0.8959798779922846
aF0.8577830664360939
aF0.8575835232750579
aF0.8272350104588169
aF0.5159281794873333
aF0.9010230130631979
aF0.8295205654872881
aF0.8949038720569353
aF0.9757864930232032
aF0.8723841945972914
aF0.9484034826956188
aF0.9326284279576913
aF0.7493797127341661
aF0.9176824869042631
aF0.8941756594871547
aF0.7572952607475609
aF0.9810257496711863
aF0.935863036672093
aF0.9656807820913285
aF0.9655036913036499
aF0.6556526634400036
aF0.794421080037881
aF0.8323200133359101
aF0.806401388269549
aF0.8789604658584259
aF0.8510486868823316
aF0.866529750212252
aF0.7731251095109468
aF0.9629827633099849
aF0.8278372564115171
aF0.847830996731172
aF0.7524905676763928
aF0.8690597100317147
aF0.8174640910916914
aF0.8874577734203566
aF0.7396076719863994
aF0.7732829638214569
aF0.9260980689618178
aF0.9019578161526388
aF0.9422962997706469
aF0.8907089832260479
aF0.8589426999012116
aF0.9116315713264944
aF0.8051162275164789
aF0.9924982914437135
aF0.8454969527627108
aF0.8435969901456248
aF0.9299388242275052
aF0.7251190285749203
aF0.8323293040990529
aF0.8973437715554686
aF0.5796634312281288
aF0.8026388516759886
aF0.9638547661464895
aF0.8308692803886583
aF0.6738379764636856
aF0.7418596099720096
aF0.6861990517993501
aF0.9565477891037681
aF0.8572278659222875
aF0.7023037659192632
aF0.9322909460189401
aF0.8438208481124218
aF0.9794061747062934
aF0.8976266612383279
aF0.9326441242546809
aF0.6933133284160082
aF0.9173373742414039
aF0.9329773792444781
aF0.9785057261704103
aF0.8567540372872051
aF0.8741665025699757
aF0.8571838497674363
aF0.8792572406252182
aF0.8969960089882095
aF0.8739993376468601
aF0.6877513397783237
aF0.7614158994763335
aF0.8717774635256665
aF0.8925099017734386
aF0.7917017100348084
aF0.8284978411618533
aF0.8406386296303457
aF0.8892683975028827
aF0.9500623878668785
aF0.8322165135356181
aF0.8030124666361186
aF0.9675866937158458
aF0.8427068395069619
aF0.7939546780596226
aF0.8389558739331124
aF0.84163262891831
aF0.9344809859948228
aF0.8433902481455763
aF0.7965912094766883
aF0.8915183555542342
aF0.6826275376005161
aF0.8042498298410558
aF0.7234797633690658
aF0.9200552824137551
aF0.8681435633230213
aF0.8356587736735788
aF0.9664598707516874
aF0.7423638910111928
aF0.6173185680418082
aF0.7865715675615766
aF0.8606513327537284
aF0.8822556953705488
aF0.5772706093612789
aF0.8210476629556328
aF0.8022568095007635
aF0.8995603515766111
aF0.8483108429907715
aF0.7248458245647201
aF0.9003798291795986
aF0.7095663462067032
aF0.9791239215751072
aF0.9485738986895303
aF0.7816085182800251
aF0.8672807661669399
aF0.8594321405525457
aF0.8285582369035547
aF0.9451909776675793
aF0.9612154899186723
aF0.8750579356847726
aF0.8495449769231384
aF0.8241394637860301
aF0.8440758228160982
aF0.9905130308774487
aF0.7975824832025292
aF0.8815862810952628
aF0.833784529572702
aF0.9463405126573062
aF0.6318840354745654
aF0.5748299550045243
aF0.7788883537631641
aF0.74729634238427
aF0.713720012770385
aF0.8674546902803594
aF0.8473265868820877
aF0.8981635913688456
aF0.8529562117285846
aF0.7107959479831634
aF0.9464889178061802
aF0.6753525926349299
aF0.8219800218665735
aF0.8217249190144473
aF0.8256370569595869
aF0.9545624258780322
aF0.6730714986443167
aF0.8177950862296692
aF0.9322820816383661
aF0.9737520653872032
aF0.8011162449592553
aF0.8336653227494065
aF0.858971706778017
aF0.7499145290846003
aF0.9057838362305607
aF0.9401409058268771
aF0.9086875400834832
aF0.7593069762099917
aF0.8572841901514907
aF0.8082251545741609
aF0.6081402565700743
aF0.8827322707139064
aF0.7945068079730984
aF0.9960409662370999
aF0.8341002186088263
aF0.6521942419929717
aF0.8772008339760722
aF0.7001944051579304
aF0.8587759823186842
aF0.8827112855857845
aF0.9319002336942812
aF0.9614307536817505
aF0.9039974816405429
aF0.870163873707374
aF0.8920306126575105
aF0.6718323245506468
aF0.9599798192915427
aF0.91756890790765
aF0.6869688270256866
aF0.8975999772639358
aF0.9558882579994947
aF0.8095204679069107
aF0.7771940769652286
aF0.8184930999260103
aF0.8722617330281414
aF0.8702586773565293
aF0.8918759248034891
aF0.7268522708141966
aF0.8069532618949756
aF0.9404563522808739
aF0.7816998807878405
aF0.7999964362862738
aF0.7912123282209628
aF1.0
aF0.8416048440155474
aF0.8100359917842076
aF0.8546550172748784
aF0.9362880321705442
aF0.9122589404152429
aF0.9699699069558751
aF0.7963831400058803
aF0.8952748444013812
aF0.7838207737537272
aF0.777790243802134
aF0.9365464239584443
aF0.8920654950368696
aF0.8144047280256612
aF0.8497740187548297
aF0.7733719920019295
aF0.9322279322505256
aF0.7907051690317738
aF0.8489589098665302
aF0.938201993743337
aF0.878851849561802
aF0.8010049406563696
aF0.77658825720831
aF0.9494028718929527
aF0.8035079303829201
aF0.9482061419195869
aF0.8823238603932542
aF0.9212675023466552
aF0.8188935311302467
aF0.9032986674925255
aF0.9330972360736473
aF0.8897037054115782
aF0.8867986379488445
aF0.7960235490773062
aF0.8227080384341866
aF0.9230975713221963
aF0.8807627630593343
aF0.9038697730821922
aF0.9263383062165993
aF0.8934361319442002
aF0.9668796199103707
aF0.8821986763938497
aF0.7841746173918525
aF0.9576476410750334
aF0.7153741567486895
aF0.9125679269185781
aF0.9245232286444326
aF0.6464416749246354
aF0.6975607405955739
aF0.6784784455205728
aF0.8937451476473889
aF0.7201847437608424
aF0.8215128758552444
aF0.9166130594790257
aF0.8722890570343486
aF0.7548837413534584
aF0.8616352445301764
aF0.6687123440411186
aF0.8408281181084607
aF0.8423950418402689
aF0.8890593743757814
aF0.8888150096508984
aF0.8178322465864943
aF0.8318546413872624
aF0.698079459236798
aF0.9393629335735199
aF0.8516060137305237
aF0.8691317369679362
aF0.6693972486096071
aF0.7194836895924496
aF0.9670867563936013
aF0.9379762347396898
aF0.7788231692750848
aF0.7086496953779943
aF0.8185061546638858
aF0.8841037198798759
aF0.6281645355209207
aF0.9280368320590276
aF0.8337429884260931
aF0.7072638168830597
aF0.8449199686368641
aF0.788620290200403
aF0.7886860908290909
aF0.861177847856459
aF0.8812795587399528
aF0.9458503140371832
aF0.970714433921876
aF0.8054250181370592
aF0.8447238992974975
aF0.8750890766617665
aF0.8489008322006032
aF0.7872511629314259
aF0.7496256456819964
aF0.7802536806272017
aF0.9219318746461849
aF0.821195807385171
aF0.898897507983619
aF0.9920187612451935
aF0.6739712083084024
aF0.7909041548903668
aF0.8786997276863534
aF0.7947933540090398
aF0.7579486528239132
aF0.7570509456873424
aF0.953402575669105
aF0.714863118878028
aF0.8341894955270226
aF0.634782743080498
aF0.7770531607046403
aF0.8607854609132162
aF0.935267775899463
aF0.8259986529883592
aF0.9647600257002524
aF0.7869599333925775
aF0.7146345622812282
aF0.8111472357629705
aF0.8700183613489488
aF0.9008118252150692
aF0.9416633883921339
aF0.8721842783304727
aF0.9382112889549005
aF0.8472411588356752
aF0.8631236912034058
aF0.8769814691371037
aF0.8427751689402248
aF0.7002173446993402
aF0.8975991328744818
aF0.6759160347160329
aF0.94272939126871
aF0.7944033783776155
aF0.8973599947809779
aF0.8870860455392683
aF0.8145781940007482
aF0.8475082210412733
aF0.7889742617652131
aF0.8931753411868177
aF0.713423173070011
aF0.7887307821963087
aF0.9188428341572911
aF0.8447414637157745
aF0.8237465809978263
aF0.9615688271757866
aF0.8205484596912266
aF0.7010991139224324
aF0.8523017553949257
aF0.6976422364968952
aF0.8696113832552017
aF0.8527872583202277
aF0.8252754952550875
aF0.7137535896336922
aF0.9069420219113989
aF0.89395948620335
aF0.8244292307863927
aF0.9169224137520486
aF0.887889745572911
aF0.8642119827314051
aF0.9410311130490815
aF0.8123555229497885
aF0.9810193776692924
aF0.8693117995143438
aF0.7030854016024269
aF0.8589382764744321
aF0.8640701967585683
aF0.9572169750678213
aF0.863895808701356
aF0.8034572855428677
aF0.9002004611915126
aF0.8558122279998526
aF0.7750523494602377
aF0.8843980353666177
aF0.8453512385732398
aF0.8446294020010318
aF0.8574021998754213
aF0.6266189923664888
aF0.7315604710136879
aF0.726148680400479
aF0.8547369294903097
aF0.7828609749400233
aF0.9248873656739931
aF0.7486850239263999
aF0.8098695536701294
aF0.9067906388429345
aF0.9798247804894891
aF0.9644839327450941
aF0.7686244571104457
aF0.9511076985980608
aF0.9481755863298766
aF0.9419941687731876
aF0.7981821199707372
aF0.9416582269301528
aF0.8618259739505308
aF0.8659992320057914
aF0.7695699102225144
aF0.7123836602047582
aF0.8438265524689259
aF0.8311906264606168
aF0.8974916643064452
aF0.866917563170523
aF0.6712453411919869
aF0.8764958642265905
aF0.9566701354342346
aF0.8828769235016012
aF0.7921371582506911
aF0.8455049824200074
aF0.6675825583189294
aF0.8914224243294379
aF0.8504244121393262
aF0.7650591883128511
aF0.888887468317745
aF0.6923532446891326
aF0.656545695741438
aF0.9138494639515788
aF0.8535667729020393
aF0.7772564462407645
aF0.7339495678967566
aF0.9108471236439138
aF0.7321555638374345
aF0.889774910845326
aF0.7959949397564173
aF0.8197820806457179
aF0.5866676860222665
aF0.8367524244302423
aF0.6623393780823896
aF0.9507230531976775
aF0.8777057379783724
aF0.843117959048782
aF0.7757835597938372
aF0.6704597233160019
aF0.8396831908453752
aF0.8510941759889713
aF0.956541704091387
aF0.9118358296691453
aF0.8558350621587137
aF0.9569247714084697
aF0.8467192250369895
aF0.7279898634754498
aF0.7186446562289189
aF0.9178038047728336
aF0.9292144641989593
aF0.8951700082234151
aF0.9241558578185209
aF0.7429630565835378
aF0.8255040056566766
aF0.6188157404883383
aF0.8423933909920122
aF0.8179132899197928
aF0.8194606138627024
aF0.8715972730028407
aF0.7431635453637617
aF0.9433454432073719
aF0.8878666597764179
aF0.5725894092817289
aF0.8662606769881862
aF0.8757805915105835
aF0.9618024549220741
aF0.9525963552274178
aF0.8996846749584224
aF0.9035092726633519
aF0.9929556399033077
aF0.7472016785126105
aF0.8713545305872238
aF0.9252277183862349
aF0.9011313326548969
aF0.8552981255987209
aF0.8738486374853035
aF0.8332185727063387
aF0.9074303964697147
aF0.8812241567542617
aF0.8534158542012235
aF0.7483195486841122
aF0.8357426887307104
aF0.9028625895723318
aF0.9174214443080982
aF0.8836721859227535
aF0.8400814988492842
aF0.5665312996309155
aF0.9365015416774747
aF0.7935648282258165
aF0.8623725473433299
aF0.885326708513673
aF0.9017228710502203
aF0.9153423448367666
aF0.7834994711235713
aF0.681502435435114
aF0.7210626579102687
aF0.7347567821648525
aF0.9425884513436159
aF0.7140508366651477
aF0.8292099261975013
aF0.7635819541058622
aF0.9296259330101518
aF0.8603955640842057
aF0.7742617552027322
aF0.8921714015526653
aF0.8676312726210978
aF0.726120500520478
aF0.910062514371973
aF0.6950794560321126
aF0.9109096240093948
aF0.938233274839518
aF0.9634630483544272
aF0.8943124741024343
aF0.8666866840338379
aF0.8985840305470618
aF0.8809025520757313
aF0.7801555966729007
aF0.8496000361252822
aF0.911319339516946
aF0.9444022016538798
aF0.8874769851737954
aF0.8624508591434134
aF0.8982516764052
aF0.8475822504323487
aF0.8330770044332004
aF0.8042082983557738
aF0.9402557169518236
aF0.8970068555135585
aF0.669894368085124
aF0.6759283531146553
aF0.9026377829536246
aF0.6738567601443247
aF0.9482416157081439
aF0.9323766387897385
aF0.6205789408953237
aF0.929304175381614
aF0.776680213682492
aF0.7610185998529136
aF0.9568958746682383
aF0.8898922870764613
aF0.8254656532050618
aF0.6575360082529753
aF0.8026631056313616
aF0.7176798990732893
aF0.8356790381597885
aF0.7237127471127673
aF0.7930463230071236
aF0.7996038038994978
aF0.7541225715004088
aF0.9868316509361801
aF0.7575761058676915
aF0.7307108683895234
aF0.8825471069615589
aF0.8679925322570555
aF0.9620533403847159
aF0.9115927188804523
aF0.9297649189800234
aF0.912031281998325
aF0.9404045374035186
aF0.9195577046777993
aF0.846685406605422
aF0.8420580168531842
aF0.7785438331286318
aF0.7604161390944124
aF0.9100177625792559
aF0.831246378443156
a.(lp0
I1
aI1
aI1
aI1
aI1
aI1
aI1
aI1
aI1
aI1
aI1
aI1
aI1
aI1
aI1
aI1
aI1
aI1
aI1
aI1
aI1
aI1
aI1
aI1
aI1
aI1
aI1
aI1
aI1
aI1
aI1
aI1
aI1
aI1
aI1
aI1
aI1
aI1
aI1
aI1
aI1
aI1
aI1
aI1
aI1
aI1
aI1
aI1
aI1
aI1
aI1
aI1
aI1
aI1
aI1
aI1
aI1
aI1
aI1
aI1
aI1
aI1
aI1
aI1
aI1
aI1
aI1
aI1
aI1
aI1
aI1
aI1
aI1
aI1
aI1
aI1
aI1
aI1
aI1
aI1
aI1
aI1
aI1
aI1
aI1
aI1
aI1
aI1
aI1
aI1
aI1
aI1
aI1
aI1
aI1
aI1
aI1
aI1
aI1
aI1
aI1
aI1
aI1
aI1
aI1
aI1
aI1
aI1
aI1
aI1
aI1
aI1
aI1
aI1
aI1
aI1
aI1
aI1
aI1
aI1
aI1
aI1
aI1
aI1
aI1
aI1
aI1
aI1
aI1
aI1
aI1
aI1
aI1
aI1
aI1
aI1
aI1
aI1
aI1
aI1
aI1
aI1
aI1
aI1
aI1
aI1
aI1
aI1
aI1
aI1
aI1
aI1
aI1
aI1
aI1
aI1
aI1
aI1
aI1
aI1
aI1
aI1
aI1
aI1
aI1
aI1
aI1
aI1
aI1
aI1
aI1
aI1
aI1
aI1
aI1
aI1
aI1
aI1
aI1
aI1
aI1
aI1
aI1
aI1
aI1
aI1
aI1
aI1
aI1
aI1
aI1
aI1
aI1
aI1
aI1
aI1
aI1
aI1
aI1
aI1
aI1
aI1
aI1
aI1
aI1
aI1
aI1
aI1
aI1
aI1
aI1
aI1
aI1
aI1
aI1
aI1
aI1
aI1
aI1
aI1
aI1
aI1
aI1
aI1
aI1
aI1
aI1
aI1
aI1
aI1
aI1
aI1
aI1
aI1
aI1
aI1
aI1
aI1
aI1
aI1
aI1
aI1
aI1
aI1
aI1
aI1
aI1
aI1
aI1
aI1
aI1
aI1
aI1
aI1
aI1
aI1
aI1
aI1
aI1
aI1
aI1
aI1
aI1
aI1
aI1
aI1
aI1
aI1
aI1
aI1
aI1
aI1
aI1
aI1
aI1
aI1
aI1
aI1
aI1
aI1
aI1
aI1
aI1
aI1
aI1
aI1
aI1
aI1
aI1
aI1
aI1
aI1
aI1
aI1
aI1
aI1
aI1
aI1
aI1
aI1
aI1
aI1
aI1
aI1
aI1
aI1
aI1
aI1
aI1
aI1
aI1
aI1
aI1
aI1
aI1
aI1
aI1
aI1
aI1
aI1
aI1
aI1
aI1
aI1
aI1
aI1
aI1
aI1
aI1
aI1
aI1
aI1
aI1
aI1
aI1
aI1
aI1
aI1
aI1
aI1
aI1
aI1
aI1
aI1
aI1
aI1
aI1
aI1
aI1
aI1
aI1
aI1
aI1
aI1
aI1
aI1
aI1
aI1
aI1
aI1
aI1
aI1
aI1
aI1
aI1
aI1
aI1
aI1
aI1
aI1
aI1
aI1
aI1
aI1
aI1
aI1
aI1
aI1
aI1
aI1
aI1
aI1
aI1
aI1
aI1
aI1
aI1
aI1
aI1
aI1
aI1
aI1
aI1
aI1
aI1
aI1
aI1
aI1
aI1
aI1
aI1
aI1
aI1
aI1
aI1
aI1
aI1
aI1
aI1
aI1
aI1
aI1
aI1
aI1
aI1
aI1
aI1
aI1
aI1
aI1
aI1
aI1
aI1
aI1
aI1
aI1
aI1
aI1
aI1
aI1
aI1
aI1
aI1
aI1
aI1
aI1
aI1
aI1
aI1
aI1
aI1
aI1
aI1
aI1
aI1
aI1
aI1
aI1
aI1
aI1
aI1
aI1
aI1
aI1
aI1
aI1
aI1
aI1
aI1
aI1
aI1
aI1
aI1
aI1
aI1
aI1
aI1
aI1
aI1
aI1
aI1
aI1
aI1
aI1
aI1
aI1
aI1
aI1
aI1
aI1
aI1
aI1
aI1
aI1
aI1
aI1
aI1
aI1
aI1
aI1
aI1
aI1
aI1
aI1
aI1
aI1
aI1
aI1
aI1
aI1
aI1
aI1
aI1
aI1
aI1
aI1
aI1
aI1
aI1
aI1
aI1
aI1
aI1
aI1
aI1
aI1
aI1
aI1
aI1
aI1
aI1
aI1
aI1
aI1
aI1
aI1
aI1
aI1
aI1
aI1
aI1
aI1
aI1
aI1
aI1
aI1
aI1
aI1
aI1
aI1
aI1
aI1
aI1
aI1
aI1
aI1
aI1
aI1
aI1
aI1
aI1
aI1
aI1
aI1
aI1
aI1
aI1
aI1
aI1
aI1
aI1
aI1
aI1
aI1
aI1
aI1
aI1
aI1
aI1
aI1
aI1
aI1
aI1
aI1
aI1
aI1
aI1
aI1
aI1
aI1
aI1
aI1
aI1
aI1
aI1
aI1
aI1
aI1
aI1
aI1
aI1
aI1
aI1
aI1
aI1
aI1
aI1
aI1
aI1
aI1
aI1
aI1
aI1
aI1
aI1
aI1
aI1
aI1
aI1
aI1
aI1
aI1
aI1
aI1
aI1
aI1
aI1
aI1
aI1
aI1
aI1
aI1
aI1
aI1
aI1
aI1
aI1
aI1
aI1
aI1
aI1
aI1
aI1
aI1
aI1
aI1
aI1
aI1
aI1
aI1
aI1
aI1
aI1
aI1
aI1
aI1
aI1
aI1
aI1
aI1
aI1
aI1
aI1
aI1
aI1
aI1
aI1
aI1
aI1
aI1
aI1
aI1
aI1
aI1
aI1
aI1
aI1
aI1
aI1
aI1
aI1
aI1
aI1
aI1
aI1
aI1
aI1
aI1
aI1
aI1
aI1
aI1
aI1
aI1
aI1
aI1
aI1
aI1
aI1
aI1
aI1
aI1
aI1
aI1
aI1
aI1
aI1
aI1
aI1
aI1
aI1
aI1
aI1
aI1
aI1
aI1
aI1
aI1
aI1
aI1
aI1
aI1
aI1
aI1
aI1
aI1
aI1
aI1
aI1
aI1
aI1
aI1
aI1
aI1
aI1
aI1
aI1
aI1
aI1
aI1
aI1
aI1
aI1
aI1
aI1
aI1
aI1
aI1
aI1
aI1
aI1
aI1
aI1
aI1
aI1
aI1
aI1
aI1
aI1
aI1
aI1
aI1
aI1
aI1
aI1
aI1
aI1
aI1
aI1
aI1
aI1
aI1
aI1
aI1
aI1
aI1
aI1
aI1
aI1
aI1
aI1
aI1
aI1
aI1
aI1
aI1
aI1
aI1
aI1
aI1
aI1
aI1
aI1
aI1
aI1
aI1
aI1
aI1
aI1
aI1
aI1
aI1
aI1
aI1
aI1
aI1
aI1
aI1
aI1
aI1
aI1
aI1
aI1
aI1
aI1
aI1
aI1
aI1
aI1
aI1
aI1
aI1
aI1
aI1
aI1
aI1
aI1
aI1
aI1
aI1
aI1
aI1
aI1
aI1
aI1
aI1
aI1
aI1
aI1
aI1
aI1
aI1
aI1
aI1
aI1
aI1
aI1
aI1
aI1
aI1
aI1
aI1
aI1
aI1
aI1
aI1
aI1
aI1
aI1
aI1
aI1
aI1
aI1
aI1
aI1
aI1
aI1
aI1
aI1
aI1
aI1
aI1
aI1
aI1
aI1
aI1
aI1
aI1
aI1
aI1
aI1
aI1
aI1
aI1
aI1
aI1
aI1
aI1
aI1
aI1
aI1
aI1
aI1
aI1
aI1
aI1
aI1
aI1
aI1
aI1
aI1
aI1
aI1
aI1
aI1
aI1
aI1
aI1
aI1
aI1
aI1
aI1
aI1
aI1
aI1
aI1
aI1
aI1
aI1
aI1
aI1
aI1
aI1
aI1
aI1
aI1
aI1
aI1
aI1
aI1
aI1
aI1
aI1
aI1
aI1
aI1
aI1
aI1
aI1
aI1
aI1
aI1
aI1
aI1
aI1
aI1
aI1
aI1
aI1
aI1
aI1
aI1
aI1
aI1
aI1
aI1
aI1
aI1
aI1
aI1
aI1
aI1
aI1
aI1
aI1
aI1
aI1
aI1
aI1
aI1
aI1
aI1
aI1
aI1
aI1
aI1
aI1
aI1
aI1
aI1
aI1
aI1
aI1
aI1
aI1
aI1
aI1
aI1
aI1
aI1
aI1
aI1
aI1
aI1
aI1
aI1
aI1
aI1
aI1
aI1
aI1
aI1
aI1
aI1
aI1
aI1
aI1
aI1
aI1
aI1
a.