(lp0
F3.1622776601683795
aI1
aF0.31622776601683794
aF0.1
aF0.03162277660168379
aF0.01
aF0.0031622776601683794
aF0.001
aF0.00031622776601683794
aF0.0001
a.(lp0
F9.03
aF8.56
aF8.2
aF8.05
aF7.75
aF7.4
aF6.48
aF5.97
aF5.74
aF6.18
a.(lp0
cnumpy.core.multiarray
scalar
p1
(cnumpy
dtype
p2
(S'f8'
p3
I0
I1
tp4
Rp5
(I3
S'<'
p6
NNNI-1
I-1
I0
tp7
bS'lV}\xae\xb6b\xf2?'
p8
tp9
Rp10
ag1
(g5
S'sF\x94\xf6\x06_\x04@'
p11
tp12
Rp13
ag1
(g5
S'\x14\xaeG\xe1z\x14\x02@'
p14
tp15
Rp16
ag1
(g5
S'\n\xd7\xa3p=\x8a\x00@'
p17
tp18
Rp19
ag1
(g5
S'\xd7\xa3p=\n\xd7\xfe?'
p20
tp21
Rp22
ag1
(g5
S'\x9a\x99\x99\x99\x99\x99\xf9?'
p23
tp24
Rp25
ag1
(g5
S'\x98\xbb\x96\x90\x0fz\n@'
p26
tp27
Rp28
ag1
(g5
S'h"lxze\x17@'
p29
tp30
Rp31
ag1
(g5
S'])\xcb\x10\xc7\xba\x11@'
p32
tp33
Rp34
ag1
(g5
S'e\xcc]K\xc8\x07\x10@'
p35
tp36
Rp37
a.(lp0
F1.0299999999999994
aF1.5600000000000005
aF1.1999999999999993
aF2.0500000000000007
aF1.75
aF1.4000000000000004
aF2.4800000000000004
aF3.9699999999999998
aF3.74
aF3.1799999999999997
a.(lp0
F0.9700000000000006
aF1.4399999999999995
aF1.8000000000000007
aF1.9499999999999993
aF2.25
aF1.5999999999999996
aF1.5199999999999996
aF3.0300000000000002
aF2.26
aF1.8200000000000003
a.