(lp0
I1
a.(lp0
F4.0
a.(lp0
cnumpy.core.multiarray
scalar
p1
(cnumpy
dtype
p2
(S'f8'
p3
I0
I1
tp4
Rp5
(I3
S'<'
p6
NNNI-1
I-1
I0
tp7
bS'\x00\x00\x00\x00\x00\x00\x00\x00'
p8
tp9
Rp10
a.(lp0
F0.0
a.(lp0
F0.0
a.(lp0
F0.8533723924091573
aF0.8943949497425692
aF0.759439309476437
aF0.829174493018424
aF0.9482380945174733
aF0.5729374563494621
aF0.7500041570670515
aF0.8695176159136759
aF0.831244488045928
aF0.8654854916674692
a.(lp0
I1
aI1
aI1
aI1
aI1
aI1
aI1
aI1
aI1
aI1
a.